; Function Attrs: mustprogress uwtable
define hidden noundef zeroext i1 @_ZN4cvc58internal6theory11quantifiers15FirstOrderModel11areDisequalENS0_12NodeTemplateILb0EEES5_(ptr noundef nonnull readonly align 8 captures(none) dereferenceable(664) %0, ptr noundef readonly captures(none) %1, ptr noundef readonly captures(none) %2) local_unnamed_addr #3 align 2 personality ptr @__gxx_personality_v0 {
  %4 = alloca %"class.cvc5::internal::NodeTemplate.413", align 8
  %5 = alloca %"class.cvc5::internal::NodeTemplate.413", align 8
  %6 = getelementptr inbounds nuw i8, ptr %0, i64 16
  %7 = load ptr, ptr %6, align 8, !tbaa !6
  %8 = load ptr, ptr %1, align 8, !tbaa !89
  store ptr %8, ptr %4, align 8, !tbaa !89
  %9 = load ptr, ptr %2, align 8, !tbaa !89
  store ptr %9, ptr %5, align 8, !tbaa !89
  %10 = call noundef zeroext i1 @_ZN4cvc58internal6theory11TheoryModel11areDisequalENS0_12NodeTemplateILb0EEES4_(ptr noundef nonnull align 8 dereferenceable(968) %7, ptr noundef nonnull %4, ptr noundef nonnull %5)
  ret i1 %10
}